; Function Attrs: mustprogress nofree norecurse nosync nounwind willreturn memory(read, inaccessiblemem: none) uwtable
define internal range(i32 -1, 2) i32 @_sort_job_queue(ptr noundef readonly captures(none) %0, ptr noundef readonly captures(none) %1) #9 {
  %3 = load ptr, ptr %0, align 8
  %4 = load ptr, ptr %1, align 8
  %5 = getelementptr inbounds nuw i8, ptr %3, i64 912
  %6 = load i64, ptr %5, align 8
  %7 = getelementptr inbounds nuw i8, ptr %4, i64 912
  %8 = load i64, ptr %7, align 8
  %.0 = tail call i32 @llvm.scmp.i32.i64(i64 %6, i64 %8)
  ret i32 %.0
}